; Function Attrs: mustprogress uwtable
define internal void @"_ZZN5drjit8do_asyncIRZNK7mitsuba6Bitmap11write_asyncERKNS1_10filesystem4pathENS2_10FileFormatEiE3$_0EEP4TaskOT_PKPKSA_mP4PoolENUljPvE_8__invokeEjSK_"(i32 %0, ptr noundef %1) #0 align 2 personality ptr @__gxx_personality_v0 {
  %3 = getelementptr inbounds i8, ptr %1, i64 40
  %4 = load ptr, ptr %3, align 8
  %5 = getelementptr inbounds i8, ptr %1, i64 32
  %6 = load i32, ptr %5, align 8
  %7 = getelementptr inbounds i8, ptr %1, i64 36
  %8 = load i32, ptr %7, align 4
  %9 = tail call noalias noundef nonnull dereferenceable(64) ptr @_Znwm(i64 noundef 64) #34
  invoke void @_ZN7mitsuba10FileStreamC1ERKNS_10filesystem4pathENS0_5EModeE(ptr noundef nonnull align 8 dereferenceable(64) %9, ptr noundef nonnull align 8 dereferenceable(25) %1, i32 noundef 2)
          to label %10 unwind label %13

10:                                               ; preds = %2
  %11 = getelementptr inbounds i8, ptr %9, i64 8
  %12 = atomicrmw add ptr %11, i32 1 seq_cst, align 4
  invoke void @_ZNK7mitsuba6Bitmap5writeEPNS_6StreamENS0_10FileFormatEi(ptr noundef nonnull align 8 dereferenceable(64) %4, ptr noundef nonnull %9, i32 noundef %6, i32 noundef %8)
          to label %"_ZZN5drjit8do_asyncIRZNK7mitsuba6Bitmap11write_asyncERKNS1_10filesystem4pathENS2_10FileFormatEiE3$_0EEP4TaskOT_PKPKSA_mP4PoolENKUljPvE_clEjSK_.exit" unwind label %_ZN7mitsuba3refINS_10FileStreamEED2Ev.exit8.i.i.i

13:                                               ; preds = %2
  %14 = landingpad { ptr, i32 }
          cleanup
  tail call void @_ZdlPv(ptr noundef nonnull %9) #35
  br label %16

_ZN7mitsuba3refINS_10FileStreamEED2Ev.exit8.i.i.i: ; preds = %10
  %15 = landingpad { ptr, i32 }
          cleanup
  tail call void @_ZNK7mitsuba6Object7dec_refEb(ptr noundef nonnull align 8 dereferenceable(12) %9, i1 noundef zeroext true) #36
  br label %16

16:                                               ; preds = %_ZN7mitsuba3refINS_10FileStreamEED2Ev.exit8.i.i.i, %13
  %.pn.i.i.i = phi { ptr, i32 } [ %15, %_ZN7mitsuba3refINS_10FileStreamEED2Ev.exit8.i.i.i ], [ %14, %13 ]
  resume { ptr, i32 } %.pn.i.i.i

"_ZZN5drjit8do_asyncIRZNK7mitsuba6Bitmap11write_asyncERKNS1_10filesystem4pathENS2_10FileFormatEiE3$_0EEP4TaskOT_PKPKSA_mP4PoolENKUljPvE_clEjSK_.exit": ; preds = %10
  tail call void @_ZNK7mitsuba6Object7dec_refEb(ptr noundef nonnull align 8 dereferenceable(12) %9, i1 noundef zeroext true) #36
  tail call void @_ZNK7mitsuba6Object7dec_refEb(ptr noundef nonnull align 8 dereferenceable(12) %4, i1 noundef zeroext true) #36
  ret void
}